; ModuleID = '42/1148.cpp'
source_filename = "42/1148.cpp"
target datalayout = "e-m:e-p270:32:32-p271:32:32-p272:64:64-i64:64-f80:128-n8:16:32:64-S128"
target triple = "x86_64-pc-linux-gnu"

%"class.std::ios_base::Init" = type { i8 }
%"class.std::basic_istream" = type { i32 (...)**, i64, %"class.std::basic_ios" }
%"class.std::basic_ios" = type { %"class.std::ios_base", %"class.std::basic_ostream"*, i8, i8, %"class.std::basic_streambuf"*, %"class.std::ctype"*, %"class.std::num_put"*, %"class.std::num_get"* }
%"class.std::ios_base" = type { i32 (...)**, i64, i64, i32, i32, i32, %"struct.std::ios_base::_Callback_list"*, %"struct.std::ios_base::_Words", [8 x %"struct.std::ios_base::_Words"], i32, %"struct.std::ios_base::_Words"*, %"class.std::locale" }
%"struct.std::ios_base::_Callback_list" = type { %"struct.std::ios_base::_Callback_list"*, void (i32, %"class.std::ios_base"*, i32)*, i32, i32 }
%"struct.std::ios_base::_Words" = type { i8*, i64 }
%"class.std::locale" = type { %"class.std::locale::_Impl"* }
%"class.std::locale::_Impl" = type { i32, %"class.std::locale::facet"**, i64, %"class.std::locale::facet"**, i8** }
%"class.std::locale::facet" = type <{ i32 (...)**, i32, [4 x i8] }>
%"class.std::basic_ostream" = type { i32 (...)**, %"class.std::basic_ios" }
%"class.std::basic_streambuf" = type { i32 (...)**, i8*, i8*, i8*, i8*, i8*, i8*, %"class.std::locale" }
%"class.std::ctype" = type <{ %"class.std::locale::facet.base", [4 x i8], %struct.__locale_struct*, i8, [7 x i8], i32*, i32*, i16*, i8, [256 x i8], [256 x i8], i8, [6 x i8] }>
%"class.std::locale::facet.base" = type <{ i32 (...)**, i32 }>
%struct.__locale_struct = type { [13 x %struct.__locale_data*], i16*, i32*, i32*, [13 x i8*] }
%struct.__locale_data = type opaque
%"class.std::num_put" = type { %"class.std::locale::facet.base", [4 x i8] }
%"class.std::num_get" = type { %"class.std::locale::facet.base", [4 x i8] }

@_ZStL8__ioinit = internal global %"class.std::ios_base::Init" zeroinitializer, align 1
@__dso_handle = external hidden global i8
@in = dso_local global [100000 x i32] zeroinitializer, align 16
@_ZSt3cin = external dso_local global %"class.std::basic_istream", align 8
@_ZSt4cout = external dso_local global %"class.std::basic_ostream", align 8
@.str = private unnamed_addr constant [2 x i8] c" \00", align 1
@llvm.global_ctors = appending global [1 x { i32, void ()*, i8* }] [{ i32, void ()*, i8* } { i32 65535, void ()* @_GLOBAL__sub_I_1148.cpp, i8* null }]

; Function Attrs: noinline uwtable
define internal void @__cxx_global_var_init() #0 section ".text.startup" {
  call void @_ZNSt8ios_base4InitC1Ev(%"class.std::ios_base::Init"* @_ZStL8__ioinit)
  %1 = call i32 @__cxa_atexit(void (i8*)* bitcast (void (%"class.std::ios_base::Init"*)* @_ZNSt8ios_base4InitD1Ev to void (i8*)*), i8* getelementptr inbounds (%"class.std::ios_base::Init", %"class.std::ios_base::Init"* @_ZStL8__ioinit, i32 0, i32 0), i8* @__dso_handle) #3
  ret void
}

declare dso_local void @_ZNSt8ios_base4InitC1Ev(%"class.std::ios_base::Init"*) unnamed_addr #1

; Function Attrs: nounwind
declare dso_local void @_ZNSt8ios_base4InitD1Ev(%"class.std::ios_base::Init"*) unnamed_addr #2

; Function Attrs: nounwind
declare dso_local i32 @__cxa_atexit(void (i8*)*, i8*, i8*) #3

; Function Attrs: noinline norecurse uwtable
define dso_local i32 @main() #4 {
  %1 = alloca i32, align 4
  %2 = alloca i32, align 4
  %3 = alloca i32, align 4
  %4 = alloca i32, align 4
  %5 = alloca i32, align 4
  %6 = alloca i32, align 4
  store i32 0, i32* %1, align 4
  store i32 0, i32* %6, align 4
  %7 = call dereferenceable(280) %"class.std::basic_istream"* @_ZNSirsERi(%"class.std::basic_istream"* @_ZSt3cin, i32* dereferenceable(4) %2)
  store i32 0, i32* %4, align 4
  br label %8

8:                                                ; preds = %17, %0
  %9 = load i32, i32* %4, align 4
  %10 = load i32, i32* %2, align 4
  %11 = icmp slt i32 %9, %10
  br i1 %11, label %12, label %20

12:                                               ; preds = %8
  %13 = load i32, i32* %4, align 4
  %14 = sext i32 %13 to i64
  %15 = getelementptr inbounds [100000 x i32], [100000 x i32]* @in, i64 0, i64 %14
  %16 = call dereferenceable(280) %"class.std::basic_istream"* @_ZNSirsERi(%"class.std::basic_istream"* @_ZSt3cin, i32* dereferenceable(4) %15)
  br label %17

17:                                               ; preds = %12
  %18 = load i32, i32* %4, align 4
  %19 = add nsw i32 %18, 1
  store i32 %19, i32* %4, align 4
  br label %8

20:                                               ; preds = %8
  %21 = call dereferenceable(280) %"class.std::basic_istream"* @_ZNSirsERi(%"class.std::basic_istream"* @_ZSt3cin, i32* dereferenceable(4) %3)
  br label %22

22:                                               ; preds = %55, %20
  store i32 0, i32* %4, align 4
  br label %23

23:                                               ; preds = %63, %22
  %24 = load i32, i32* %4, align 4
  %25 = load i32, i32* %2, align 4
  %26 = icmp slt i32 %24, %25
  br i1 %26, label %27, label %66

27:                                               ; preds = %23
  %28 = load i32, i32* %4, align 4
  %29 = sext i32 %28 to i64
  %30 = getelementptr inbounds [100000 x i32], [100000 x i32]* @in, i64 0, i64 %29
  %31 = load i32, i32* %30, align 4
  %32 = load i32, i32* %3, align 4
  %33 = icmp eq i32 %31, %32
  br i1 %33, label %34, label %62

34:                                               ; preds = %27
  %35 = load i32, i32* %6, align 4
  %36 = add nsw i32 %35, 1
  store i32 %36, i32* %6, align 4
  %37 = load i32, i32* %4, align 4
  store i32 %37, i32* %5, align 4
  br label %38

38:                                               ; preds = %52, %34
  %39 = load i32, i32* %5, align 4
  %40 = load i32, i32* %2, align 4
  %41 = sub nsw i32 %40, 1
  %42 = icmp slt i32 %39, %41
  br i1 %42, label %43, label %55

43:                                               ; preds = %38
  %44 = load i32, i32* %5, align 4
  %45 = add nsw i32 %44, 1
  %46 = sext i32 %45 to i64
  %47 = getelementptr inbounds [100000 x i32], [100000 x i32]* @in, i64 0, i64 %46
  %48 = load i32, i32* %47, align 4
  %49 = load i32, i32* %5, align 4
  %50 = sext i32 %49 to i64
  %51 = getelementptr inbounds [100000 x i32], [100000 x i32]* @in, i64 0, i64 %50
  store i32 %48, i32* %51, align 4
  br label %52

52:                                               ; preds = %43
  %53 = load i32, i32* %5, align 4
  %54 = add nsw i32 %53, 1
  store i32 %54, i32* %5, align 4
  br label %38

55:                                               ; preds = %38
  %56 = load i32, i32* %3, align 4
  %57 = sub nsw i32 %56, 1
  %58 = load i32, i32* %2, align 4
  %59 = sub nsw i32 %58, 1
  %60 = sext i32 %59 to i64
  %61 = getelementptr inbounds [100000 x i32], [100000 x i32]* @in, i64 0, i64 %60
  store i32 %57, i32* %61, align 4
  br label %22

62:                                               ; preds = %27
  br label %63

63:                                               ; preds = %62
  %64 = load i32, i32* %4, align 4
  %65 = add nsw i32 %64, 1
  store i32 %65, i32* %4, align 4
  br label %23

66:                                               ; preds = %23
  %67 = load i32, i32* getelementptr inbounds ([100000 x i32], [100000 x i32]* @in, i64 0, i64 0), align 16
  %68 = call dereferenceable(272) %"class.std::basic_ostream"* @_ZNSolsEi(%"class.std::basic_ostream"* @_ZSt4cout, i32 %67)
  store i32 1, i32* %4, align 4
  br label %69

69:                                               ; preds = %82, %66
  %70 = load i32, i32* %4, align 4
  %71 = load i32, i32* %2, align 4
  %72 = load i32, i32* %6, align 4
  %73 = sub nsw i32 %71, %72
  %74 = icmp slt i32 %70, %73
  br i1 %74, label %75, label %85

75:                                               ; preds = %69
  %76 = call dereferenceable(272) %"class.std::basic_ostream"* @_ZStlsISt11char_traitsIcEERSt13basic_ostreamIcT_ES5_PKc(%"class.std::basic_ostream"* dereferenceable(272) @_ZSt4cout, i8* getelementptr inbounds ([2 x i8], [2 x i8]* @.str, i64 0, i64 0))
  %77 = load i32, i32* %4, align 4
  %78 = sext i32 %77 to i64
  %79 = getelementptr inbounds [100000 x i32], [100000 x i32]* @in, i64 0, i64 %78
  %80 = load i32, i32* %79, align 4
  %81 = call dereferenceable(272) %"class.std::basic_ostream"* @_ZNSolsEi(%"class.std::basic_ostream"* %76, i32 %80)
  br label %82

82:                                               ; preds = %75
  %83 = load i32, i32* %4, align 4
  %84 = add nsw i32 %83, 1
  store i32 %84, i32* %4, align 4
  br label %69

85:                                               ; preds = %69
  %86 = call i32 @_ZNSi3getEv(%"class.std::basic_istream"* @_ZSt3cin)
  %87 = call i32 @_ZNSi3getEv(%"class.std::basic_istream"* @_ZSt3cin)
  %88 = call i32 @_ZNSi3getEv(%"class.std::basic_istream"* @_ZSt3cin)
  ret i32 0
}

declare dso_local dereferenceable(280) %"class.std::basic_istream"* @_ZNSirsERi(%"class.std::basic_istream"*, i32* dereferenceable(4)) #1

declare dso_local dereferenceable(272) %"class.std::basic_ostream"* @_ZNSolsEi(%"class.std::basic_ostream"*, i32) #1

declare dso_local dereferenceable(272) %"class.std::basic_ostream"* @_ZStlsISt11char_traitsIcEERSt13basic_ostreamIcT_ES5_PKc(%"class.std::basic_ostream"* dereferenceable(272), i8*) #1

declare dso_local i32 @_ZNSi3getEv(%"class.std::basic_istream"*) #1

; Function Attrs: noinline uwtable
define internal void @_GLOBAL__sub_I_1148.cpp() #0 section ".text.startup" {
  call void @__cxx_global_var_init()
  ret void
}


!llvm.module.flags = !{!0}
!llvm.ident = !{!1}

!0 = !{i32 1, !"wchar_size", i32 4}
!1 = !{!"clang version 10.0.0-4ubuntu1 "}
